target datalayout = "e-m:e-p270:32:32-p271:32:32-p272:64:64-i64:64-i128:128-f80:128-n8:16:32:64-S128"
target triple = "x86_64-pc-linux-gnu"

%struct.pmix_mca_base_framework_t = type { ptr, ptr, ptr, ptr, ptr, ptr, i32, i32, ptr, ptr, i32, i32, %struct.pmix_list_t, %struct.pmix_list_t }
%struct.pmix_list_t = type { %struct.pmix_object_t, %struct.pmix_list_item_t, i64 }
%struct.pmix_object_t = type { %union.pthread_mutex_t, ptr, i32, %struct.pmix_tma }
%union.pthread_mutex_t = type { %struct.__pthread_mutex_s }
%struct.__pthread_mutex_s = type { i32, i32, i32, i32, i32, i16, i16, %struct.__pthread_internal_list }
%struct.__pthread_internal_list = type { ptr, ptr }
%struct.pmix_tma = type { ptr, ptr, ptr, ptr, ptr, ptr, ptr, ptr }
%struct.pmix_list_item_t = type { %struct.pmix_object_t, ptr, ptr, i32 }
%struct.pmix_output_desc_t = type { i8, i8, i32, i8, i32, ptr, ptr, i32, ptr, i32, i8, i8, i8, i8, ptr, i32, i32 }
%struct.pmix_bfrop_type_info_t = type { %struct.pmix_object_t, i16, ptr, ptr, ptr, ptr, ptr }
%struct.pmix_pointer_array_t = type { %struct.pmix_object_t, i32, i32, i32, i32, i32, ptr, ptr }
%struct.pmix_value = type { i16, %union.anon }
%union.anon = type { %struct.pmix_envar_t }
%struct.pmix_envar_t = type { ptr, ptr, i8 }
%struct.pmix_info = type { [512 x i8], i32, %struct.pmix_value }

@pmix_bfrops_base_framework = external global %struct.pmix_mca_base_framework_t, align 8
@pmix_output_info = external global [0 x %struct.pmix_output_desc_t], align 8
@.str.6 = private unnamed_addr constant [37 x i8] c"PMIX ERROR: %s in file %s at line %d\00", align 1
@.str.7 = private unnamed_addr constant [25 x i8] c"base/bfrop_base_unpack.c\00", align 1
@.str.18 = private unnamed_addr constant [27 x i8] c"pmix_bfrop_unpack: %d info\00", align 1
@.str.19 = private unnamed_addr constant [32 x i8] c"pmix_bfrop_unpack: info type %d\00", align 1

; Function Attrs: inlinehint nounwind uwtable
define internal void @pmix_strncpy(ptr noundef %0, ptr noundef %1, i64 noundef %2) #3 {
  %4 = alloca ptr, align 8
  %5 = alloca ptr, align 8
  %6 = alloca i64, align 8
  %7 = alloca i64, align 8
  store ptr %0, ptr %4, align 8, !tbaa !38
  store ptr %1, ptr %5, align 8, !tbaa !38
  store i64 %2, ptr %6, align 8, !tbaa !54
  call void @llvm.lifetime.start.p0(i64 8, ptr %7) #11
  store i64 0, ptr %7, align 8, !tbaa !54
  br label %8

8:                                                ; preds = %22, %3
  %9 = load i64, ptr %7, align 8, !tbaa !54
  %10 = load i64, ptr %6, align 8, !tbaa !54
  %11 = icmp ult i64 %9, %10
  br i1 %11, label %12, label %29

12:                                               ; preds = %8
  %13 = load ptr, ptr %5, align 8, !tbaa !38
  %14 = load i8, ptr %13, align 1, !tbaa !41
  %15 = load ptr, ptr %4, align 8, !tbaa !38
  store i8 %14, ptr %15, align 1, !tbaa !41
  %16 = load ptr, ptr %5, align 8, !tbaa !38
  %17 = load i8, ptr %16, align 1, !tbaa !41
  %18 = sext i8 %17 to i32
  %19 = icmp eq i32 0, %18
  br i1 %19, label %20, label %21

20:                                               ; preds = %12
  br label %29

21:                                               ; preds = %12
  br label %22

22:                                               ; preds = %21
  %23 = load i64, ptr %7, align 8, !tbaa !54
  %24 = add i64 %23, 1
  store i64 %24, ptr %7, align 8, !tbaa !54
  %25 = load ptr, ptr %5, align 8, !tbaa !38
  %26 = getelementptr inbounds nuw i8, ptr %25, i32 1
  store ptr %26, ptr %5, align 8, !tbaa !38
  %27 = load ptr, ptr %4, align 8, !tbaa !38
  %28 = getelementptr inbounds nuw i8, ptr %27, i32 1
  store ptr %28, ptr %4, align 8, !tbaa !38
  br label %8, !llvm.loop !106

29:                                               ; preds = %20, %8
  %30 = load ptr, ptr %4, align 8, !tbaa !38
  store i8 0, ptr %30, align 1, !tbaa !41
  call void @llvm.lifetime.end.p0(i64 8, ptr %7) #11
  ret void
}

; Function Attrs: inlinehint nounwind uwtable
define internal ptr @pmix_pointer_array_get_item(ptr noundef %0, i32 noundef %1) #3 {
  %3 = alloca ptr, align 8
  %4 = alloca ptr, align 8
  %5 = alloca i32, align 4
  %6 = alloca ptr, align 8
  %7 = alloca i32, align 4
  store ptr %0, ptr %4, align 8, !tbaa !3
  store i32 %1, ptr %5, align 4, !tbaa !13
  call void @llvm.lifetime.start.p0(i64 8, ptr %6) #11
  %8 = load i32, ptr %5, align 4, !tbaa !13
  %9 = icmp sgt i32 0, %8
  br i1 %9, label %16, label %10

10:                                               ; preds = %2
  %11 = load ptr, ptr %4, align 8, !tbaa !3
  %12 = getelementptr inbounds nuw %struct.pmix_pointer_array_t, ptr %11, i32 0, i32 3
  %13 = load i32, ptr %12, align 8, !tbaa !33
  %14 = load i32, ptr %5, align 4, !tbaa !13
  %15 = icmp sle i32 %13, %14
  br label %16

16:                                               ; preds = %10, %2
  %17 = phi i1 [ true, %2 ], [ %15, %10 ]
  %18 = xor i1 %17, true
  %19 = xor i1 %18, true
  %20 = zext i1 %19 to i32
  %21 = sext i32 %20 to i64
  %22 = call i64 @llvm.expect.i64(i64 %21, i64 0)
  %23 = icmp ne i64 %22, 0
  br i1 %23, label %24, label %25

24:                                               ; preds = %16
  store ptr null, ptr %3, align 8
  store i32 1, ptr %7, align 4
  br label %34

25:                                               ; preds = %16
  %26 = load ptr, ptr %4, align 8, !tbaa !3
  %27 = getelementptr inbounds nuw %struct.pmix_pointer_array_t, ptr %26, i32 0, i32 7
  %28 = load ptr, ptr %27, align 8, !tbaa !36
  %29 = load i32, ptr %5, align 4, !tbaa !13
  %30 = sext i32 %29 to i64
  %31 = getelementptr inbounds ptr, ptr %28, i64 %30
  %32 = load ptr, ptr %31, align 8, !tbaa !8
  store ptr %32, ptr %6, align 8, !tbaa !8
  %33 = load ptr, ptr %6, align 8, !tbaa !8
  store ptr %33, ptr %3, align 8
  store i32 1, ptr %7, align 4
  br label %34

34:                                               ; preds = %25, %24
  call void @llvm.lifetime.end.p0(i64 8, ptr %6) #11
  %35 = load ptr, ptr %3, align 8
  ret ptr %35
}

; Function Attrs: nounwind uwtable
define i32 @pmix_bfrops_base_unpack_info(ptr noundef %0, ptr noundef %1, ptr noundef %2, ptr noundef %3, i16 noundef zeroext %4) #0 {
  %6 = alloca i32, align 4
  %7 = alloca ptr, align 8
  %8 = alloca ptr, align 8
  %9 = alloca ptr, align 8
  %10 = alloca ptr, align 8
  %11 = alloca i16, align 2
  %12 = alloca ptr, align 8
  %13 = alloca i32, align 4
  %14 = alloca i32, align 4
  %15 = alloca i32, align 4
  %16 = alloca i32, align 4
  %17 = alloca ptr, align 8
  %18 = alloca ptr, align 8
  %19 = alloca i32, align 4
  %20 = alloca ptr, align 8
  store ptr %0, ptr %7, align 8, !tbaa !3
  store ptr %1, ptr %8, align 8, !tbaa !8
  store ptr %2, ptr %9, align 8, !tbaa !8
  store ptr %3, ptr %10, align 8, !tbaa !9
  store i16 %4, ptr %11, align 2, !tbaa !11
  call void @llvm.lifetime.start.p0(i64 8, ptr %12) #11
  call void @llvm.lifetime.start.p0(i64 4, ptr %13) #11
  call void @llvm.lifetime.start.p0(i64 4, ptr %14) #11
  call void @llvm.lifetime.start.p0(i64 4, ptr %15) #11
  call void @llvm.lifetime.start.p0(i64 4, ptr %16) #11
  call void @llvm.lifetime.start.p0(i64 8, ptr %17) #11
  %21 = load i32, ptr getelementptr inbounds nuw (%struct.pmix_mca_base_framework_t, ptr @pmix_bfrops_base_framework, i32 0, i32 11), align 4, !tbaa !15
  %22 = icmp sge i32 %21, 0
  br i1 %22, label %23, label %37

23:                                               ; preds = %5
  %24 = load i32, ptr getelementptr inbounds nuw (%struct.pmix_mca_base_framework_t, ptr @pmix_bfrops_base_framework, i32 0, i32 11), align 4, !tbaa !15
  %25 = icmp slt i32 %24, 64
  br i1 %25, label %26, label %37

26:                                               ; preds = %23
  %27 = load i32, ptr getelementptr inbounds nuw (%struct.pmix_mca_base_framework_t, ptr @pmix_bfrops_base_framework, i32 0, i32 11), align 4, !tbaa !15
  %28 = sext i32 %27 to i64
  %29 = getelementptr inbounds [0 x %struct.pmix_output_desc_t], ptr @pmix_output_info, i64 0, i64 %28
  %30 = getelementptr inbounds nuw %struct.pmix_output_desc_t, ptr %29, i32 0, i32 2
  %31 = load i32, ptr %30, align 4, !tbaa !26
  %32 = icmp sge i32 %31, 20
  br i1 %32, label %33, label %37

33:                                               ; preds = %26
  %34 = load i32, ptr getelementptr inbounds nuw (%struct.pmix_mca_base_framework_t, ptr @pmix_bfrops_base_framework, i32 0, i32 11), align 4, !tbaa !15
  %35 = load ptr, ptr %10, align 8, !tbaa !9
  %36 = load i32, ptr %35, align 4, !tbaa !13
  call void (i32, ptr, ...) @pmix_output(i32 noundef %34, ptr noundef @.str.18, i32 noundef %36)
  br label %37

37:                                               ; preds = %33, %26, %23, %5
  %38 = load ptr, ptr %9, align 8, !tbaa !8
  store ptr %38, ptr %12, align 8, !tbaa !101
  %39 = load ptr, ptr %10, align 8, !tbaa !9
  %40 = load i32, ptr %39, align 4, !tbaa !13
  store i32 %40, ptr %14, align 4, !tbaa !13
  store i32 0, ptr %13, align 4, !tbaa !13
  br label %41

41:                                               ; preds = %173, %37
  %42 = load i32, ptr %13, align 4, !tbaa !13
  %43 = load i32, ptr %14, align 4, !tbaa !13
  %44 = icmp slt i32 %42, %43
  br i1 %44, label %45, label %176

45:                                               ; preds = %41
  %46 = load ptr, ptr %12, align 8, !tbaa !101
  %47 = load i32, ptr %13, align 4, !tbaa !13
  %48 = sext i32 %47 to i64
  %49 = getelementptr inbounds %struct.pmix_info, ptr %46, i64 %48
  %50 = getelementptr inbounds nuw %struct.pmix_info, ptr %49, i32 0, i32 0
  %51 = getelementptr inbounds [512 x i8], ptr %50, i64 0, i64 0
  call void @llvm.memset.p0.i64(ptr align 8 %51, i8 0, i64 512, i1 false)
  %52 = load ptr, ptr %12, align 8, !tbaa !101
  %53 = load i32, ptr %13, align 4, !tbaa !13
  %54 = sext i32 %53 to i64
  %55 = getelementptr inbounds %struct.pmix_info, ptr %52, i64 %54
  %56 = getelementptr inbounds nuw %struct.pmix_info, ptr %55, i32 0, i32 2
  call void @llvm.memset.p0.i64(ptr align 8 %56, i8 0, i64 32, i1 false)
  store i32 1, ptr %15, align 4, !tbaa !13
  store ptr null, ptr %17, align 8, !tbaa !38
  br label %57

57:                                               ; preds = %45
  call void @llvm.lifetime.start.p0(i64 8, ptr %18) #11
  %58 = load ptr, ptr %7, align 8, !tbaa !3
  %59 = call ptr @pmix_pointer_array_get_item(ptr noundef %58, i32 noundef 3)
  store ptr %59, ptr %18, align 8, !tbaa !8
  %60 = load ptr, ptr %18, align 8, !tbaa !8
  %61 = icmp eq ptr null, %60
  br i1 %61, label %62, label %63

62:                                               ; preds = %57
  store i32 -16, ptr %16, align 4, !tbaa !13
  br label %70

63:                                               ; preds = %57
  %64 = load ptr, ptr %18, align 8, !tbaa !8
  %65 = getelementptr inbounds nuw %struct.pmix_bfrop_type_info_t, ptr %64, i32 0, i32 4
  %66 = load ptr, ptr %65, align 8, !tbaa !31
  %67 = load ptr, ptr %7, align 8, !tbaa !3
  %68 = load ptr, ptr %8, align 8, !tbaa !8
  %69 = call i32 %66(ptr noundef %67, ptr noundef %68, ptr noundef %17, ptr noundef %15, i16 noundef zeroext 3)
  store i32 %69, ptr %16, align 4, !tbaa !13
  br label %70

70:                                               ; preds = %63, %62
  call void @llvm.lifetime.end.p0(i64 8, ptr %18) #11
  br label %71

71:                                               ; preds = %70
  br label %72

72:                                               ; preds = %71
  %73 = load i32, ptr %16, align 4, !tbaa !13
  %74 = icmp ne i32 0, %73
  br i1 %74, label %75, label %86

75:                                               ; preds = %72
  br label %76

76:                                               ; preds = %75
  %77 = load i32, ptr %16, align 4, !tbaa !13
  %78 = icmp ne i32 -2, %77
  br i1 %78, label %79, label %82

79:                                               ; preds = %76
  %80 = load i32, ptr %16, align 4, !tbaa !13
  %81 = call ptr @PMIx_Error_string(i32 noundef %80)
  call void (i32, ptr, ...) @pmix_output(i32 noundef 0, ptr noundef @.str.6, ptr noundef %81, ptr noundef @.str.7, i32 noundef 768)
  br label %82

82:                                               ; preds = %79, %76
  br label %83

83:                                               ; preds = %82
  br label %84

84:                                               ; preds = %83
  %85 = load i32, ptr %16, align 4, !tbaa !13
  store i32 %85, ptr %6, align 4
  store i32 1, ptr %19, align 4
  br label %177

86:                                               ; preds = %72
  %87 = load ptr, ptr %17, align 8, !tbaa !38
  %88 = icmp eq ptr null, %87
  br i1 %88, label %89, label %90

89:                                               ; preds = %86
  store i32 -1, ptr %6, align 4
  store i32 1, ptr %19, align 4
  br label %177

90:                                               ; preds = %86
  %91 = load ptr, ptr %12, align 8, !tbaa !101
  %92 = load i32, ptr %13, align 4, !tbaa !13
  %93 = sext i32 %92 to i64
  %94 = getelementptr inbounds %struct.pmix_info, ptr %91, i64 %93
  %95 = getelementptr inbounds nuw %struct.pmix_info, ptr %94, i32 0, i32 0
  %96 = getelementptr inbounds [512 x i8], ptr %95, i64 0, i64 0
  %97 = load ptr, ptr %17, align 8, !tbaa !38
  call void @pmix_strncpy(ptr noundef %96, ptr noundef %97, i64 noundef 511)
  %98 = load ptr, ptr %17, align 8, !tbaa !38
  call void @free(ptr noundef %98) #11
  store i32 1, ptr %15, align 4, !tbaa !13
  br label %99

99:                                               ; preds = %90
  call void @llvm.lifetime.start.p0(i64 8, ptr %20) #11
  %100 = load ptr, ptr %7, align 8, !tbaa !3
  %101 = call ptr @pmix_pointer_array_get_item(ptr noundef %100, i32 noundef 35)
  store ptr %101, ptr %20, align 8, !tbaa !8
  %102 = load ptr, ptr %20, align 8, !tbaa !8
  %103 = icmp eq ptr null, %102
  br i1 %103, label %104, label %105

104:                                              ; preds = %99
  store i32 -16, ptr %16, align 4, !tbaa !13
  br label %117

105:                                              ; preds = %99
  %106 = load ptr, ptr %20, align 8, !tbaa !8
  %107 = getelementptr inbounds nuw %struct.pmix_bfrop_type_info_t, ptr %106, i32 0, i32 4
  %108 = load ptr, ptr %107, align 8, !tbaa !31
  %109 = load ptr, ptr %7, align 8, !tbaa !3
  %110 = load ptr, ptr %8, align 8, !tbaa !8
  %111 = load ptr, ptr %12, align 8, !tbaa !101
  %112 = load i32, ptr %13, align 4, !tbaa !13
  %113 = sext i32 %112 to i64
  %114 = getelementptr inbounds %struct.pmix_info, ptr %111, i64 %113
  %115 = getelementptr inbounds nuw %struct.pmix_info, ptr %114, i32 0, i32 1
  %116 = call i32 %108(ptr noundef %109, ptr noundef %110, ptr noundef %115, ptr noundef %15, i16 noundef zeroext 35)
  store i32 %116, ptr %16, align 4, !tbaa !13
  br label %117

117:                                              ; preds = %105, %104
  call void @llvm.lifetime.end.p0(i64 8, ptr %20) #11
  br label %118

118:                                              ; preds = %117
  br label %119

119:                                              ; preds = %118
  %120 = load i32, ptr %16, align 4, !tbaa !13
  %121 = icmp ne i32 0, %120
  br i1 %121, label %122, label %124

122:                                              ; preds = %119
  %123 = load i32, ptr %16, align 4, !tbaa !13
  store i32 %123, ptr %6, align 4
  store i32 1, ptr %19, align 4
  br label %177

124:                                              ; preds = %119
  %125 = load ptr, ptr %7, align 8, !tbaa !3
  %126 = load ptr, ptr %8, align 8, !tbaa !8
  %127 = load ptr, ptr %12, align 8, !tbaa !101
  %128 = load i32, ptr %13, align 4, !tbaa !13
  %129 = sext i32 %128 to i64
  %130 = getelementptr inbounds %struct.pmix_info, ptr %127, i64 %129
  %131 = getelementptr inbounds nuw %struct.pmix_info, ptr %130, i32 0, i32 2
  %132 = getelementptr inbounds nuw %struct.pmix_value, ptr %131, i32 0, i32 0
  %133 = call i32 @pmix_bfrop_get_data_type(ptr noundef %125, ptr noundef %126, ptr noundef %132)
  store i32 %133, ptr %16, align 4, !tbaa !13
  %134 = icmp ne i32 0, %133
  br i1 %134, label %135, label %137

135:                                              ; preds = %124
  %136 = load i32, ptr %16, align 4, !tbaa !13
  store i32 %136, ptr %6, align 4
  store i32 1, ptr %19, align 4
  br label %177

137:                                              ; preds = %124
  %138 = load i32, ptr getelementptr inbounds nuw (%struct.pmix_mca_base_framework_t, ptr @pmix_bfrops_base_framework, i32 0, i32 11), align 4, !tbaa !15
  %139 = icmp sge i32 %138, 0
  br i1 %139, label %140, label %160

140:                                              ; preds = %137
  %141 = load i32, ptr getelementptr inbounds nuw (%struct.pmix_mca_base_framework_t, ptr @pmix_bfrops_base_framework, i32 0, i32 11), align 4, !tbaa !15
  %142 = icmp slt i32 %141, 64
  br i1 %142, label %143, label %160

143:                                              ; preds = %140
  %144 = load i32, ptr getelementptr inbounds nuw (%struct.pmix_mca_base_framework_t, ptr @pmix_bfrops_base_framework, i32 0, i32 11), align 4, !tbaa !15
  %145 = sext i32 %144 to i64
  %146 = getelementptr inbounds [0 x %struct.pmix_output_desc_t], ptr @pmix_output_info, i64 0, i64 %145
  %147 = getelementptr inbounds nuw %struct.pmix_output_desc_t, ptr %146, i32 0, i32 2
  %148 = load i32, ptr %147, align 4, !tbaa !26
  %149 = icmp sge i32 %148, 20
  br i1 %149, label %150, label %160

150:                                              ; preds = %143
  %151 = load i32, ptr getelementptr inbounds nuw (%struct.pmix_mca_base_framework_t, ptr @pmix_bfrops_base_framework, i32 0, i32 11), align 4, !tbaa !15
  %152 = load ptr, ptr %12, align 8, !tbaa !101
  %153 = load i32, ptr %13, align 4, !tbaa !13
  %154 = sext i32 %153 to i64
  %155 = getelementptr inbounds %struct.pmix_info, ptr %152, i64 %154
  %156 = getelementptr inbounds nuw %struct.pmix_info, ptr %155, i32 0, i32 2
  %157 = getelementptr inbounds nuw %struct.pmix_value, ptr %156, i32 0, i32 0
  %158 = load i16, ptr %157, align 8, !tbaa !103
  %159 = zext i16 %158 to i32
  call void (i32, ptr, ...) @pmix_output(i32 noundef %151, ptr noundef @.str.19, i32 noundef %159)
  br label %160

160:                                              ; preds = %150, %143, %140, %137
  store i32 1, ptr %15, align 4, !tbaa !13
  %161 = load ptr, ptr %7, align 8, !tbaa !3
  %162 = load ptr, ptr %8, align 8, !tbaa !8
  %163 = load ptr, ptr %12, align 8, !tbaa !101
  %164 = load i32, ptr %13, align 4, !tbaa !13
  %165 = sext i32 %164 to i64
  %166 = getelementptr inbounds %struct.pmix_info, ptr %163, i64 %165
  %167 = getelementptr inbounds nuw %struct.pmix_info, ptr %166, i32 0, i32 2
  %168 = call i32 @pmix_bfrops_base_unpack_val(ptr noundef %161, ptr noundef %162, ptr noundef %167)
  store i32 %168, ptr %16, align 4, !tbaa !13
  %169 = icmp ne i32 0, %168
  br i1 %169, label %170, label %172

170:                                              ; preds = %160
  %171 = load i32, ptr %16, align 4, !tbaa !13
  store i32 %171, ptr %6, align 4
  store i32 1, ptr %19, align 4
  br label %177

172:                                              ; preds = %160
  br label %173

173:                                              ; preds = %172
  %174 = load i32, ptr %13, align 4, !tbaa !13
  %175 = add nsw i32 %174, 1
  store i32 %175, ptr %13, align 4, !tbaa !13
  br label %41, !llvm.loop !105

176:                                              ; preds = %41
  store i32 0, ptr %6, align 4
  store i32 1, ptr %19, align 4
  br label %177

177:                                              ; preds = %176, %170, %135, %122, %89, %84
  call void @llvm.lifetime.end.p0(i64 8, ptr %17) #11
  call void @llvm.lifetime.end.p0(i64 4, ptr %16) #11
  call void @llvm.lifetime.end.p0(i64 4, ptr %15) #11
  call void @llvm.lifetime.end.p0(i64 4, ptr %14) #11
  call void @llvm.lifetime.end.p0(i64 4, ptr %13) #11
  call void @llvm.lifetime.end.p0(i64 8, ptr %12) #11
  %178 = load i32, ptr %6, align 4
  ret i32 %178
}