; Function Attrs: nounwind uwtable
define i32 @pmix_bfrops_base_unpack_info(ptr noundef %0, ptr noundef %1, ptr noundef %2, ptr noundef readonly captures(none) %3, i16 noundef zeroext %4) local_unnamed_addr #0 {
  %6 = alloca i32, align 4
  %7 = alloca ptr, align 8
  call void @llvm.lifetime.start.p0(i64 4, ptr nonnull %6) #10
  call void @llvm.lifetime.start.p0(i64 8, ptr nonnull %7) #10
  %8 = load i32, ptr getelementptr inbounds nuw (i8, ptr @pmix_bfrops_base_framework, i64 76), align 4, !tbaa !7
  %or.cond = icmp ult i32 %8, 64
  br i1 %or.cond, label %9, label %16

9:                                                ; preds = %5
  %10 = zext nneg i32 %8 to i64
  %11 = getelementptr inbounds nuw [0 x %struct.pmix_output_desc_t], ptr @pmix_output_info, i64 0, i64 %10, i32 2
  %12 = load i32, ptr %11, align 4, !tbaa !19
  %13 = icmp sgt i32 %12, 19
  br i1 %13, label %14, label %16

14:                                               ; preds = %9
  %15 = load i32, ptr %3, align 4, !tbaa !3
  tail call void (i32, ptr, ...) @pmix_output(i32 noundef %8, ptr noundef nonnull @.str.18, i32 noundef %15) #10
  br label %16

16:                                               ; preds = %14, %9, %5
  %17 = load i32, ptr %3, align 4, !tbaa !3
  %18 = icmp sgt i32 %17, 0
  br i1 %18, label %.lr.ph, label %.thread66

.lr.ph:                                           ; preds = %16
  %19 = getelementptr inbounds nuw i8, ptr %0, i64 128
  %20 = getelementptr inbounds nuw i8, ptr %0, i64 152
  %wide.trip.count = zext nneg i32 %17 to i64
  br label %22

21:                                               ; preds = %67
  %indvars.iv.next = add nuw nsw i64 %indvars.iv, 1
  %exitcond.not = icmp eq i64 %indvars.iv.next, %wide.trip.count
  br i1 %exitcond.not, label %.thread66, label %22, !llvm.loop !72

22:                                               ; preds = %.lr.ph, %21
  %indvars.iv = phi i64 [ 0, %.lr.ph ], [ %indvars.iv.next, %21 ]
  %23 = getelementptr inbounds nuw %struct.pmix_info, ptr %2, i64 %indvars.iv
  call void @llvm.memset.p0.i64(ptr noundef nonnull align 8 dereferenceable(512) %23, i8 0, i64 512, i1 false)
  %24 = getelementptr inbounds nuw i8, ptr %23, i64 520
  call void @llvm.memset.p0.i64(ptr noundef nonnull align 8 dereferenceable(32) %24, i8 0, i64 32, i1 false)
  store i32 1, ptr %6, align 4, !tbaa !3
  store ptr null, ptr %7, align 8, !tbaa !63
  %25 = load i32, ptr %19, align 8, !tbaa !26
  %.not.i = icmp sgt i32 %25, 3
  br i1 %.not.i, label %pmix_pointer_array_get_item.exit, label %.thread, !prof !29

pmix_pointer_array_get_item.exit:                 ; preds = %22
  %26 = load ptr, ptr %20, align 8, !tbaa !30
  %27 = getelementptr inbounds nuw i8, ptr %26, i64 24
  %28 = load ptr, ptr %27, align 8, !tbaa !31
  %29 = icmp eq ptr %28, null
  br i1 %29, label %.thread, label %30

30:                                               ; preds = %pmix_pointer_array_get_item.exit
  %31 = getelementptr inbounds nuw i8, ptr %28, i64 144
  %32 = load ptr, ptr %31, align 8, !tbaa !32
  %33 = call i32 %32(ptr noundef nonnull %0, ptr noundef %1, ptr noundef nonnull %7, ptr noundef nonnull %6, i16 noundef zeroext 3) #10
  switch i32 %33, label %.thread [
    i32 0, label %35
    i32 -2, label %.thread66
  ]

.thread:                                          ; preds = %22, %pmix_pointer_array_get_item.exit, %30
  %.04663 = phi i32 [ %33, %30 ], [ -16, %pmix_pointer_array_get_item.exit ], [ -16, %22 ]
  %34 = call ptr @PMIx_Error_string(i32 noundef %.04663) #10
  call void (i32, ptr, ...) @pmix_output(i32 noundef 0, ptr noundef nonnull @.str.6, ptr noundef %34, ptr noundef nonnull @.str.7, i32 noundef 768) #10
  br label %.thread66

35:                                               ; preds = %30
  %36 = load ptr, ptr %7, align 8, !tbaa !63
  %37 = icmp eq ptr %36, null
  br i1 %37, label %.thread66, label %.preheader

.preheader:                                       ; preds = %35, %40
  %.012.i = phi i64 [ %41, %40 ], [ 0, %35 ]
  %.0811.i = phi ptr [ %43, %40 ], [ %23, %35 ]
  %.0910.i = phi ptr [ %42, %40 ], [ %36, %35 ]
  %38 = load i8, ptr %.0910.i, align 1, !tbaa !35
  store i8 %38, ptr %.0811.i, align 1, !tbaa !35
  %39 = icmp eq i8 %38, 0
  br i1 %39, label %pmix_strncpy.exit, label %40

40:                                               ; preds = %.preheader
  %41 = add nuw nsw i64 %.012.i, 1
  %42 = getelementptr inbounds nuw i8, ptr %.0910.i, i64 1
  %43 = getelementptr inbounds nuw i8, ptr %.0811.i, i64 1
  %exitcond.not.i = icmp eq i64 %41, 511
  br i1 %exitcond.not.i, label %pmix_strncpy.exit, label %.preheader, !llvm.loop !73

pmix_strncpy.exit:                                ; preds = %.preheader, %40
  %.08.lcssa.i = phi ptr [ %.0811.i, %.preheader ], [ %43, %40 ]
  store i8 0, ptr %.08.lcssa.i, align 1, !tbaa !35
  %44 = load ptr, ptr %7, align 8, !tbaa !63
  call void @free(ptr noundef %44) #10
  store i32 1, ptr %6, align 4, !tbaa !3
  %45 = load i32, ptr %19, align 8, !tbaa !26
  %.not.i58 = icmp sgt i32 %45, 35
  br i1 %.not.i58, label %pmix_pointer_array_get_item.exit60, label %.thread66, !prof !29

pmix_pointer_array_get_item.exit60:               ; preds = %pmix_strncpy.exit
  %46 = load ptr, ptr %20, align 8, !tbaa !30
  %47 = getelementptr inbounds nuw i8, ptr %46, i64 280
  %48 = load ptr, ptr %47, align 8, !tbaa !31
  %49 = icmp eq ptr %48, null
  br i1 %49, label %.thread66, label %50

50:                                               ; preds = %pmix_pointer_array_get_item.exit60
  %51 = getelementptr inbounds nuw i8, ptr %48, i64 144
  %52 = load ptr, ptr %51, align 8, !tbaa !32
  %53 = getelementptr inbounds nuw i8, ptr %23, i64 512
  %54 = call i32 %52(ptr noundef nonnull %0, ptr noundef %1, ptr noundef nonnull %53, ptr noundef nonnull %6, i16 noundef zeroext 35) #10
  %.not54 = icmp eq i32 %54, 0
  br i1 %.not54, label %55, label %.thread66

55:                                               ; preds = %50
  %56 = call i32 @pmix_bfrop_get_data_type(ptr noundef nonnull %0, ptr noundef %1, ptr noundef nonnull %24) #10
  %.not55 = icmp eq i32 %56, 0
  br i1 %.not55, label %57, label %.thread66

57:                                               ; preds = %55
  %58 = load i32, ptr getelementptr inbounds nuw (i8, ptr @pmix_bfrops_base_framework, i64 76), align 4, !tbaa !7
  %or.cond3 = icmp ult i32 %58, 64
  br i1 %or.cond3, label %59, label %67

59:                                               ; preds = %57
  %60 = zext nneg i32 %58 to i64
  %61 = getelementptr inbounds nuw [0 x %struct.pmix_output_desc_t], ptr @pmix_output_info, i64 0, i64 %60, i32 2
  %62 = load i32, ptr %61, align 4, !tbaa !19
  %63 = icmp sgt i32 %62, 19
  br i1 %63, label %64, label %67

64:                                               ; preds = %59
  %65 = load i16, ptr %24, align 8, !tbaa !74
  %66 = zext i16 %65 to i32
  call void (i32, ptr, ...) @pmix_output(i32 noundef %58, ptr noundef nonnull @.str.19, i32 noundef %66) #10
  br label %67

67:                                               ; preds = %64, %59, %57
  store i32 1, ptr %6, align 4, !tbaa !3
  %68 = call i32 @pmix_bfrops_base_unpack_val(ptr noundef nonnull %0, ptr noundef %1, ptr noundef nonnull %24)
  %.not56 = icmp eq i32 %68, 0
  br i1 %.not56, label %21, label %.thread66

.thread66:                                        ; preds = %30, %35, %50, %55, %67, %21, %pmix_pointer_array_get_item.exit60, %pmix_strncpy.exit, %16, %.thread
  %.0 = phi i32 [ %.04663, %.thread ], [ 0, %16 ], [ %33, %30 ], [ -1, %35 ], [ %54, %50 ], [ %56, %55 ], [ %68, %67 ], [ 0, %21 ], [ -16, %pmix_pointer_array_get_item.exit60 ], [ -16, %pmix_strncpy.exit ]
  call void @llvm.lifetime.end.p0(i64 8, ptr nonnull %7) #10
  call void @llvm.lifetime.end.p0(i64 4, ptr nonnull %6) #10
  ret i32 %.0
}